target datalayout = "e-m:e-p270:32:32-p271:32:32-p272:64:64-i64:64-i128:128-f80:128-n8:16:32:64-S128"
target triple = "x86_64-pc-linux-gnu"

%struct.CVodeMemRec = type { ptr, double, ptr, ptr, i32, i32, double, double, ptr, i32, i32, ptr, ptr, i32, i32, ptr, i32, i32, double, double, ptr, i32, i32, i32, i32, ptr, ptr, ptr, i32, i32, ptr, ptr, ptr, i32, double, i32, i32, double, ptr, ptr, ptr, i32, ptr, ptr, i32, i32, i32, double, ptr, ptr, ptr, [13 x ptr], ptr, ptr, ptr, ptr, ptr, ptr, ptr, ptr, ptr, [13 x ptr], ptr, ptr, ptr, ptr, [13 x ptr], ptr, ptr, ptr, ptr, ptr, i32, [13 x ptr], ptr, ptr, ptr, ptr, ptr, i32, i32, double, i32, i32, i32, i32, i32, double, double, double, double, double, double, double, double, [14 x double], [6 x double], [13 x double], double, double, double, double, double, double, double, double, i32, double, double, i32, double, double, ptr, i32, i64, i32, i32, i32, double, double, double, double, double, double, double, double, double, double, double, double, i64, i32, i64, i64, i64, i64, i64, i64, i64, i64, i64, ptr, i64, i64, ptr, i64, i64, ptr, i64, i64, i64, i64, i64, i64, i32, double, double, double, i64, i64, i64, i64, i64, i64, ptr, i32, ptr, i32, ptr, i32, ptr, i32, i32, i64, i32, ptr, i32, ptr, ptr, ptr, ptr, ptr, ptr, i32, i32, ptr, ptr, ptr, ptr, ptr, i64, double, i32, i32, i64, double, double, double, i32, i32, double, i32, i32, i32, i32, i32, i32, i32, i32, i32, i32, i32, i32, i32, i32, i32, i32, ptr, i64, i32, [6 x [4 x double]], i32, i64, ptr, i32, ptr, ptr, double, double, double, ptr, ptr, ptr, double, double, i32, i32, i64, ptr, i32, ptr, i32, i32, [13 x double], ptr, ptr, ptr, i32, ptr, i32 }

; Function Attrs: nounwind uwtable
define i32 @cvSensRhs1Wrapper(ptr noundef %0, double noundef %1, ptr noundef %2, ptr noundef %3, i32 noundef %4, ptr noundef %5, ptr noundef %6, ptr noundef %7, ptr noundef %8) #0 {
  %10 = alloca ptr, align 8
  %11 = alloca double, align 8
  %12 = alloca ptr, align 8
  %13 = alloca ptr, align 8
  %14 = alloca i32, align 4
  %15 = alloca ptr, align 8
  %16 = alloca ptr, align 8
  %17 = alloca ptr, align 8
  %18 = alloca ptr, align 8
  %19 = alloca i32, align 4
  store ptr %0, ptr %10, align 8, !tbaa !10
  store double %1, ptr %11, align 8, !tbaa !150
  store ptr %2, ptr %12, align 8, !tbaa !151
  store ptr %3, ptr %13, align 8, !tbaa !151
  store i32 %4, ptr %14, align 4, !tbaa !3
  store ptr %5, ptr %15, align 8, !tbaa !151
  store ptr %6, ptr %16, align 8, !tbaa !151
  store ptr %7, ptr %17, align 8, !tbaa !151
  store ptr %8, ptr %18, align 8, !tbaa !151
  call void @llvm.lifetime.start.p0(i64 4, ptr %19) #10
  %20 = load ptr, ptr %10, align 8, !tbaa !10
  %21 = getelementptr inbounds nuw %struct.CVodeMemRec, ptr %20, i32 0, i32 26
  %22 = load ptr, ptr %21, align 8, !tbaa !83
  %23 = load ptr, ptr %10, align 8, !tbaa !10
  %24 = getelementptr inbounds nuw %struct.CVodeMemRec, ptr %23, i32 0, i32 23
  %25 = load i32, ptr %24, align 8, !tbaa !230
  %26 = load double, ptr %11, align 8, !tbaa !150
  %27 = load ptr, ptr %12, align 8, !tbaa !151
  %28 = load ptr, ptr %13, align 8, !tbaa !151
  %29 = load i32, ptr %14, align 4, !tbaa !3
  %30 = load ptr, ptr %15, align 8, !tbaa !151
  %31 = load ptr, ptr %16, align 8, !tbaa !151
  %32 = load ptr, ptr %10, align 8, !tbaa !10
  %33 = getelementptr inbounds nuw %struct.CVodeMemRec, ptr %32, i32 0, i32 27
  %34 = load ptr, ptr %33, align 8, !tbaa !81
  %35 = load ptr, ptr %17, align 8, !tbaa !151
  %36 = load ptr, ptr %18, align 8, !tbaa !151
  %37 = call i32 %22(i32 noundef %25, double noundef %26, ptr noundef %27, ptr noundef %28, i32 noundef %29, ptr noundef %30, ptr noundef %31, ptr noundef %34, ptr noundef %35, ptr noundef %36)
  store i32 %37, ptr %19, align 4, !tbaa !3
  %38 = load ptr, ptr %10, align 8, !tbaa !10
  %39 = getelementptr inbounds nuw %struct.CVodeMemRec, ptr %38, i32 0, i32 135
  %40 = load i64, ptr %39, align 8, !tbaa !233
  %41 = add nsw i64 %40, 1
  store i64 %41, ptr %39, align 8, !tbaa !233
  %42 = load i32, ptr %19, align 4, !tbaa !3
  call void @llvm.lifetime.end.p0(i64 4, ptr %19) #10
  ret i32 %42
}