; Function Attrs: nounwind uwtable
define i32 @cvSensRhs1Wrapper(ptr noundef captures(none) %0, double noundef %1, ptr noundef %2, ptr noundef %3, i32 noundef %4, ptr noundef %5, ptr noundef %6, ptr noundef %7, ptr noundef %8) local_unnamed_addr #0 {
  %10 = getelementptr inbounds nuw i8, ptr %0, i64 160
  %11 = load ptr, ptr %10, align 8, !tbaa !44
  %12 = getelementptr inbounds nuw i8, ptr %0, i64 144
  %13 = load i32, ptr %12, align 8, !tbaa !156
  %14 = getelementptr inbounds nuw i8, ptr %0, i64 168
  %15 = load ptr, ptr %14, align 8, !tbaa !158
  %16 = tail call i32 %11(i32 noundef %13, double noundef %1, ptr noundef %2, ptr noundef %3, i32 noundef %4, ptr noundef %5, ptr noundef %6, ptr noundef %15, ptr noundef %7, ptr noundef %8) #13
  %17 = getelementptr inbounds nuw i8, ptr %0, i64 1600
  %18 = load i64, ptr %17, align 8, !tbaa !284
  %19 = add nsw i64 %18, 1
  store i64 %19, ptr %17, align 8, !tbaa !284
  ret i32 %16
}